; Function Attrs: mustprogress nofree norecurse nosync nounwind willreturn memory(argmem: write) uwtable
define hidden void @_ZN6google8protobuf24SimpleDescriptorDatabaseC2Ev(ptr noundef nonnull align 8 dereferenceable(176) initializes((0, 8), (16, 20), (24, 32)) %0) unnamed_addr #7 align 2 personality ptr @__gxx_personality_v0 {
  store ptr getelementptr inbounds nuw inrange(-16, 56) (i8, ptr @_ZTVN6google8protobuf24SimpleDescriptorDatabaseE, i64 16), ptr %0, align 8, !tbaa !3
  %2 = getelementptr inbounds nuw i8, ptr %0, i64 16
  store i32 0, ptr %2, align 8, !tbaa !6
  %3 = getelementptr inbounds nuw i8, ptr %0, i64 24
  store ptr null, ptr %3, align 8, !tbaa !14
  %4 = getelementptr inbounds nuw i8, ptr %0, i64 32
  store ptr %2, ptr %4, align 8, !tbaa !15
  %5 = getelementptr inbounds nuw i8, ptr %0, i64 40
  store ptr %2, ptr %5, align 8, !tbaa !16
  %6 = getelementptr inbounds nuw i8, ptr %0, i64 48
  store i64 0, ptr %6, align 8, !tbaa !17
  %7 = getelementptr inbounds nuw i8, ptr %0, i64 64
  store i32 0, ptr %7, align 8, !tbaa !6
  %8 = getelementptr inbounds nuw i8, ptr %0, i64 72
  store ptr null, ptr %8, align 8, !tbaa !14
  %9 = getelementptr inbounds nuw i8, ptr %0, i64 80
  store ptr %7, ptr %9, align 8, !tbaa !15
  %10 = getelementptr inbounds nuw i8, ptr %0, i64 88
  store ptr %7, ptr %10, align 8, !tbaa !16
  %11 = getelementptr inbounds nuw i8, ptr %0, i64 96
  store i64 0, ptr %11, align 8, !tbaa !17
  %12 = getelementptr inbounds nuw i8, ptr %0, i64 112
  store i32 0, ptr %12, align 8, !tbaa !6
  %13 = getelementptr inbounds nuw i8, ptr %0, i64 120
  store ptr null, ptr %13, align 8, !tbaa !14
  %14 = getelementptr inbounds nuw i8, ptr %0, i64 128
  store ptr %12, ptr %14, align 8, !tbaa !15
  %15 = getelementptr inbounds nuw i8, ptr %0, i64 136
  store ptr %12, ptr %15, align 8, !tbaa !16
  %16 = getelementptr inbounds nuw i8, ptr %0, i64 144
  tail call void @llvm.memset.p0.i64(ptr noundef nonnull align 8 dereferenceable(32) %16, i8 0, i64 32, i1 false)
  ret void
}